(lp0
(lp1
I-7
aI14
aa(lp2
I-9
aI2
aa(lp3
I-5
aI2
aa(lp4
I-13
aI3
aa(lp5
I-6
aI14
aa(lp6
I-3
aI18
aa(lp7
I11
aI4
aa(lp8
I15
aI7
aa(lp9
I-8
aI17
aa(lp10
I5
aI19
aa(lp11
I-12
aI-1
aa(lp12
I2
aI19
aa(lp13
I3
aI9
aa(lp14
I-9
aI13
aa(lp15
I12
aI2
aa(lp16
I7
aI24
aa(lp17
I10
aI-3
aa(lp18
I-9
aI2
aa(lp19
I13
aI16
aa(lp20
I-10
aI7
aa(lp21
I-10
aI7
aa(lp22
I-2
aI-4
aa(lp23
I-11
aI19
aa(lp24
I15
aI19
aa(lp25
I12
aI6
aa(lp26
I0
aI25
aa(lp27
I15
aI21
aa(lp28
I-10
aI2
aa(lp29
I2
aI20
aa(lp30
I9
aI7
aa(lp31
I15
aI13
aa(lp32
I-10
aI25
aa(lp33
I7
aI11
aa(lp34
I7
aI11
aa(lp35
I-6
aI7
aa(lp36
I-10
aI19
aa(lp37
I11
aI-3
aa(lp38
I-2
aI19
aa(lp39
I-11
aI9
aa(lp40
I-12
aI5
aa(lp41
I-5
aI24
aa(lp42
I-15
aI-3
aa(lp43
I-5
aI12
aa(lp44
I14
aI5
aa(lp45
I6
aI13
aa(lp46
I9
aI19
aa(lp47
I8
aI20
aa(lp48
I-14
aI8
aa(lp49
I-14
aI-4
aa(lp50
I-3
aI5
aa.