(lp0
(lp1
I10
aI-5
aa(lp2
I2
aI-1
aa(lp3
I12
aI5
aa(lp4
I9
aI23
aa(lp5
I8
aI9
aa(lp6
I0
aI16
aa(lp7
I13
aI9
aa(lp8
I3
aI15
aa(lp9
I-7
aI14
aa(lp10
I0
aI14
aa(lp11
I-8
aI8
aa(lp12
I6
aI12
aa(lp13
I9
aI9
aa(lp14
I-7
aI-3
aa(lp15
I-3
aI16
aa(lp16
I8
aI14
aa(lp17
I-1
aI20
aa(lp18
I-11
aI25
aa(lp19
I0
aI8
aa(lp20
I-9
aI2
aa(lp21
I-7
aI9
aa(lp22
I1
aI0
aa(lp23
I-10
aI16
aa(lp24
I-6
aI-1
aa(lp25
I-8
aI25
aa(lp26
I-9
aI2
aa(lp27
I-4
aI24
aa(lp28
I0
aI18
aa(lp29
I7
aI12
aa(lp30
I-2
aI13
aa(lp31
I-7
aI4
aa(lp32
I1
aI18
aa(lp33
I-14
aI20
aa(lp34
I7
aI17
aa(lp35
I-5
aI6
aa(lp36
I-11
aI20
aa(lp37
I-13
aI7
aa(lp38
I8
aI25
aa(lp39
I-11
aI15
aa(lp40
I-13
aI0
aa(lp41
I10
aI21
aa(lp42
I6
aI9
aa(lp43
I-2
aI23
aa(lp44
I7
aI19
aa(lp45
I8
aI8
aa(lp46
I8
aI24
aa(lp47
I13
aI15
aa(lp48
I6
aI-5
aa(lp49
I-8
aI10
aa(lp50
I2
aI11
aa(lp51
I6
aI5
aa(lp52
I-13
aI12
aa(lp53
I0
aI1
aa(lp54
I-3
aI14
aa(lp55
I5
aI16
aa(lp56
I-9
aI-2
aa(lp57
I9
aI13
aa(lp58
I-15
aI0
aa(lp59
I-5
aI14
aa(lp60
I15
aI23
aa(lp61
I-6
aI14
aa(lp62
I-10
aI-3
aa(lp63
I-13
aI25
aa(lp64
I2
aI25
aa(lp65
I6
aI14
aa(lp66
I11
aI19
aa(lp67
I-14
aI9
aa(lp68
I6
aI14
aa(lp69
I-8
aI-1
aa(lp70
I12
aI17
aa(lp71
I4
aI13
aa(lp72
I-11
aI24
aa(lp73
I-8
aI2
aa(lp74
I-9
aI22
aa(lp75
I-13
aI11
aa(lp76
I8
aI2
aa(lp77
I-2
aI0
aa(lp78
I7
aI-2
aa(lp79
I3
aI2
aa(lp80
I3
aI2
aa(lp81
I12
aI15
aa(lp82
I9
aI-3
aa(lp83
I-11
aI13
aa(lp84
I5
aI23
aa(lp85
I4
aI11
aa(lp86
I-14
aI9
aa(lp87
I3
aI0
aa(lp88
I-11
aI-4
aa(lp89
I-7
aI7
aa(lp90
I5
aI-4
aa(lp91
I-14
aI25
aa(lp92
I3
aI9
aa(lp93
I-13
aI21
aa(lp94
I6
aI14
aa(lp95
I-9
aI13
aa(lp96
I-13
aI22
aa(lp97
I2
aI14
aa(lp98
I-12
aI-4
aa(lp99
I9
aI-3
aa(lp100
I6
aI16
aa(lp101
I-4
aI2
aa(lp102
I-8
aI13
aa(lp103
I10
aI11
aa(lp104
I7
aI4
aa(lp105
I8
aI23
aa(lp106
I-7
aI2
aa(lp107
I-12
aI4
aa(lp108
I15
aI12
aa(lp109
I-8
aI3
aa(lp110
I0
aI24
aa(lp111
I-1
aI22
aa(lp112
I2
aI11
aa(lp113
I-15
aI17
aa(lp114
I-7
aI15
aa(lp115
I-7
aI19
aa(lp116
I-11
aI23
aa(lp117
I10
aI-5
aa(lp118
I13
aI21
aa(lp119
I5
aI-1
aa(lp120
I-9
aI13
aa(lp121
I2
aI23
aa(lp122
I4
aI-3
aa(lp123
I4
aI25
aa(lp124
I8
aI11
aa(lp125
I-5
aI-5
aa(lp126
I2
aI0
aa(lp127
I-1
aI-1
aa(lp128
I0
aI14
aa(lp129
I8
aI7
aa(lp130
I-1
aI14
aa(lp131
I-12
aI3
aa(lp132
I13
aI14
aa(lp133
I-7
aI18
aa(lp134
I-8
aI8
aa(lp135
I12
aI16
aa(lp136
I2
aI15
aa(lp137
I3
aI11
aa(lp138
I-8
aI13
aa(lp139
I11
aI23
aa(lp140
I7
aI-2
aa(lp141
I12
aI-5
aa(lp142
I-5
aI8
aa(lp143
I-1
aI-5
aa(lp144
I4
aI10
aa(lp145
I-5
aI-3
aa(lp146
I-13
aI5
aa(lp147
I12
aI16
aa(lp148
I-3
aI8
aa(lp149
I-9
aI5
aa(lp150
I11
aI23
aa.